target datalayout = "e-m:e-p270:32:32-p271:32:32-p272:64:64-i64:64-i128:128-f80:128-n8:16:32:64-S128"
target triple = "x86_64-pc-linux-gnu"

%struct.ParallelSlot = type { i32, ptr, ptr, ptr, i32, i32, i32, i32, i32 }
%struct.ParallelState = type { i32, ptr, ptr }
%struct._tocEntry = type { ptr, ptr, %struct.CatalogId, i32, i32, i8, ptr, ptr, ptr, ptr, i8, ptr, ptr, ptr, ptr, ptr, ptr, i32, ptr, ptr, ptr, i64, i32, i8, ptr, ptr, i32, ptr, i32, ptr, i32 }
%struct.CatalogId = type { i32, i32 }

@.str.13 = private unnamed_addr constant [49 x i8] c"could not write to the communication channel: %m\00", align 1
@.str.14 = private unnamed_addr constant [8 x i8] c"DUMP %d\00", align 1
@.str.15 = private unnamed_addr constant [11 x i8] c"RESTORE %d\00", align 1

; Function Attrs: nounwind uwtable
define internal void @sendMessageToWorker(ptr noundef %0, i32 noundef %1, ptr noundef %2) #0 {
  %4 = alloca ptr, align 8
  %5 = alloca i32, align 4
  %6 = alloca ptr, align 8
  %7 = alloca i32, align 4
  store ptr %0, ptr %4, align 8
  store i32 %1, ptr %5, align 4
  store ptr %2, ptr %6, align 8
  call void @llvm.lifetime.start.p0(i64 4, ptr %7) #10
  %8 = load ptr, ptr %6, align 8
  %9 = call i64 @strlen(ptr noundef %8) #13
  %10 = add i64 %9, 1
  %11 = trunc i64 %10 to i32
  store i32 %11, ptr %7, align 4
  %12 = load ptr, ptr %4, align 8
  %13 = getelementptr inbounds nuw %struct.ParallelState, ptr %12, i32 0, i32 2
  %14 = load ptr, ptr %13, align 8
  %15 = load i32, ptr %5, align 4
  %16 = sext i32 %15 to i64
  %17 = getelementptr inbounds %struct.ParallelSlot, ptr %14, i64 %16
  %18 = getelementptr inbounds nuw %struct.ParallelSlot, ptr %17, i32 0, i32 5
  %19 = load i32, ptr %18, align 4
  %20 = load ptr, ptr %6, align 8
  %21 = load i32, ptr %7, align 4
  %22 = sext i32 %21 to i64
  %23 = call i64 @write(i32 noundef %19, ptr noundef %20, i64 noundef %22)
  %24 = load i32, ptr %7, align 4
  %25 = sext i32 %24 to i64
  %26 = icmp ne i64 %23, %25
  br i1 %26, label %27, label %31

27:                                               ; preds = %3
  br label %28

28:                                               ; preds = %27
  call void (i32, i32, ptr, ...) @pg_log_generic(i32 noundef 4, i32 noundef 0, ptr noundef @.str.13)
  call void @exit_nicely(i32 noundef 1) #11
  unreachable

29:                                               ; No predecessors!
  br label %30

30:                                               ; preds = %29
  br label %31

31:                                               ; preds = %30, %3
  call void @llvm.lifetime.end.p0(i64 4, ptr %7) #10
  ret void
}

; Function Attrs: nounwind uwtable
define internal void @buildWorkerCommand(ptr noundef %0, ptr noundef %1, i32 noundef %2, ptr noundef %3, i32 noundef %4) #0 {
  %6 = alloca ptr, align 8
  %7 = alloca ptr, align 8
  %8 = alloca i32, align 4
  %9 = alloca ptr, align 8
  %10 = alloca i32, align 4
  store ptr %0, ptr %6, align 8
  store ptr %1, ptr %7, align 8
  store i32 %2, ptr %8, align 4
  store ptr %3, ptr %9, align 8
  store i32 %4, ptr %10, align 4
  %11 = load i32, ptr %8, align 4
  %12 = icmp eq i32 %11, 0
  br i1 %12, label %13, label %21

13:                                               ; preds = %5
  %14 = load ptr, ptr %9, align 8
  %15 = load i32, ptr %10, align 4
  %16 = sext i32 %15 to i64
  %17 = load ptr, ptr %7, align 8
  %18 = getelementptr inbounds nuw %struct._tocEntry, ptr %17, i32 0, i32 3
  %19 = load i32, ptr %18, align 8
  %20 = call i32 (ptr, i64, ptr, ...) @pg_snprintf(ptr noundef %14, i64 noundef %16, ptr noundef @.str.14, i32 noundef %19)
  br label %34

21:                                               ; preds = %5
  %22 = load i32, ptr %8, align 4
  %23 = icmp eq i32 %22, 1
  br i1 %23, label %24, label %32

24:                                               ; preds = %21
  %25 = load ptr, ptr %9, align 8
  %26 = load i32, ptr %10, align 4
  %27 = sext i32 %26 to i64
  %28 = load ptr, ptr %7, align 8
  %29 = getelementptr inbounds nuw %struct._tocEntry, ptr %28, i32 0, i32 3
  %30 = load i32, ptr %29, align 8
  %31 = call i32 (ptr, i64, ptr, ...) @pg_snprintf(ptr noundef %25, i64 noundef %27, ptr noundef @.str.15, i32 noundef %30)
  br label %33

32:                                               ; preds = %21
  br label %33

33:                                               ; preds = %32, %24
  br label %34

34:                                               ; preds = %33, %13
  ret void
}

; Function Attrs: nounwind uwtable
define internal i32 @GetIdleWorker(ptr noundef %0) #0 {
  %2 = alloca i32, align 4
  %3 = alloca ptr, align 8
  %4 = alloca i32, align 4
  %5 = alloca i32, align 4
  store ptr %0, ptr %3, align 8
  call void @llvm.lifetime.start.p0(i64 4, ptr %4) #10
  store i32 0, ptr %4, align 4
  br label %6

6:                                                ; preds = %25, %1
  %7 = load i32, ptr %4, align 4
  %8 = load ptr, ptr %3, align 8
  %9 = getelementptr inbounds nuw %struct.ParallelState, ptr %8, i32 0, i32 0
  %10 = load i32, ptr %9, align 8
  %11 = icmp slt i32 %7, %10
  br i1 %11, label %12, label %28

12:                                               ; preds = %6
  %13 = load ptr, ptr %3, align 8
  %14 = getelementptr inbounds nuw %struct.ParallelState, ptr %13, i32 0, i32 2
  %15 = load ptr, ptr %14, align 8
  %16 = load i32, ptr %4, align 4
  %17 = sext i32 %16 to i64
  %18 = getelementptr inbounds %struct.ParallelSlot, ptr %15, i64 %17
  %19 = getelementptr inbounds nuw %struct.ParallelSlot, ptr %18, i32 0, i32 0
  %20 = load i32, ptr %19, align 8
  %21 = icmp eq i32 %20, 1
  br i1 %21, label %22, label %24

22:                                               ; preds = %12
  %23 = load i32, ptr %4, align 4
  store i32 %23, ptr %2, align 4
  store i32 1, ptr %5, align 4
  br label %29

24:                                               ; preds = %12
  br label %25

25:                                               ; preds = %24
  %26 = load i32, ptr %4, align 4
  %27 = add i32 %26, 1
  store i32 %27, ptr %4, align 4
  br label %6, !llvm.loop !13

28:                                               ; preds = %6
  store i32 -1, ptr %2, align 4
  store i32 1, ptr %5, align 4
  br label %29

29:                                               ; preds = %28, %22
  call void @llvm.lifetime.end.p0(i64 4, ptr %4) #10
  %30 = load i32, ptr %2, align 4
  ret i32 %30
}

; Function Attrs: nounwind uwtable
define dso_local void @DispatchJobForTocEntry(ptr noundef %0, ptr noundef %1, ptr noundef %2, i32 noundef %3, ptr noundef %4, ptr noundef %5) #0 {
  %7 = alloca ptr, align 8
  %8 = alloca ptr, align 8
  %9 = alloca ptr, align 8
  %10 = alloca i32, align 4
  %11 = alloca ptr, align 8
  %12 = alloca ptr, align 8
  %13 = alloca i32, align 4
  %14 = alloca [256 x i8], align 16
  store ptr %0, ptr %7, align 8
  store ptr %1, ptr %8, align 8
  store ptr %2, ptr %9, align 8
  store i32 %3, ptr %10, align 4
  store ptr %4, ptr %11, align 8
  store ptr %5, ptr %12, align 8
  call void @llvm.lifetime.start.p0(i64 4, ptr %13) #10
  call void @llvm.lifetime.start.p0(i64 256, ptr %14) #10
  br label %15

15:                                               ; preds = %19, %6
  %16 = load ptr, ptr %8, align 8
  %17 = call i32 @GetIdleWorker(ptr noundef %16)
  store i32 %17, ptr %13, align 4
  %18 = icmp eq i32 %17, -1
  br i1 %18, label %19, label %22

19:                                               ; preds = %15
  %20 = load ptr, ptr %7, align 8
  %21 = load ptr, ptr %8, align 8
  call void @WaitForWorkers(ptr noundef %20, ptr noundef %21, i32 noundef 2)
  br label %15, !llvm.loop !12

22:                                               ; preds = %15
  %23 = load ptr, ptr %7, align 8
  %24 = load ptr, ptr %9, align 8
  %25 = load i32, ptr %10, align 4
  %26 = getelementptr inbounds [256 x i8], ptr %14, i64 0, i64 0
  call void @buildWorkerCommand(ptr noundef %23, ptr noundef %24, i32 noundef %25, ptr noundef %26, i32 noundef 256)
  %27 = load ptr, ptr %8, align 8
  %28 = load i32, ptr %13, align 4
  %29 = getelementptr inbounds [256 x i8], ptr %14, i64 0, i64 0
  call void @sendMessageToWorker(ptr noundef %27, i32 noundef %28, ptr noundef %29)
  %30 = load ptr, ptr %8, align 8
  %31 = getelementptr inbounds nuw %struct.ParallelState, ptr %30, i32 0, i32 2
  %32 = load ptr, ptr %31, align 8
  %33 = load i32, ptr %13, align 4
  %34 = sext i32 %33 to i64
  %35 = getelementptr inbounds %struct.ParallelSlot, ptr %32, i64 %34
  %36 = getelementptr inbounds nuw %struct.ParallelSlot, ptr %35, i32 0, i32 0
  store i32 2, ptr %36, align 8
  %37 = load ptr, ptr %11, align 8
  %38 = load ptr, ptr %8, align 8
  %39 = getelementptr inbounds nuw %struct.ParallelState, ptr %38, i32 0, i32 2
  %40 = load ptr, ptr %39, align 8
  %41 = load i32, ptr %13, align 4
  %42 = sext i32 %41 to i64
  %43 = getelementptr inbounds %struct.ParallelSlot, ptr %40, i64 %42
  %44 = getelementptr inbounds nuw %struct.ParallelSlot, ptr %43, i32 0, i32 1
  store ptr %37, ptr %44, align 8
  %45 = load ptr, ptr %12, align 8
  %46 = load ptr, ptr %8, align 8
  %47 = getelementptr inbounds nuw %struct.ParallelState, ptr %46, i32 0, i32 2
  %48 = load ptr, ptr %47, align 8
  %49 = load i32, ptr %13, align 4
  %50 = sext i32 %49 to i64
  %51 = getelementptr inbounds %struct.ParallelSlot, ptr %48, i64 %50
  %52 = getelementptr inbounds nuw %struct.ParallelSlot, ptr %51, i32 0, i32 2
  store ptr %45, ptr %52, align 8
  %53 = load ptr, ptr %9, align 8
  %54 = load ptr, ptr %8, align 8
  %55 = getelementptr inbounds nuw %struct.ParallelState, ptr %54, i32 0, i32 1
  %56 = load ptr, ptr %55, align 8
  %57 = load i32, ptr %13, align 4
  %58 = sext i32 %57 to i64
  %59 = getelementptr inbounds ptr, ptr %56, i64 %58
  store ptr %53, ptr %59, align 8
  call void @llvm.lifetime.end.p0(i64 256, ptr %14) #10
  call void @llvm.lifetime.end.p0(i64 4, ptr %13) #10
  ret void
}