; Function Attrs: nounwind uwtable
define dso_local void @DispatchJobForTocEntry(ptr noundef %0, ptr noundef readonly captures(none) %1, ptr noundef %2, i32 noundef %3, ptr noundef %4, ptr noundef %5) local_unnamed_addr #1 {
  %7 = alloca [256 x i8], align 16
  call void @llvm.lifetime.start.p0(i64 256, ptr nonnull %7) #18
  %8 = getelementptr i8, ptr %1, i64 16
  br label %9

9:                                                ; preds = %GetIdleWorker.exit.thread, %6
  %10 = load i32, ptr %1, align 8
  %11 = icmp sgt i32 %10, 0
  br i1 %11, label %.lr.ph.i, label %GetIdleWorker.exit.thread

.lr.ph.i:                                         ; preds = %9
  %12 = load ptr, ptr %8, align 8
  %wide.trip.count.i = zext nneg i32 %10 to i64
  br label %13

13:                                               ; preds = %17, %.lr.ph.i
  %indvars.iv.i = phi i64 [ 0, %.lr.ph.i ], [ %indvars.iv.next.i, %17 ]
  %14 = getelementptr inbounds nuw %struct.ParallelSlot, ptr %12, i64 %indvars.iv.i
  %15 = load i32, ptr %14, align 8
  %16 = icmp eq i32 %15, 1
  br i1 %16, label %GetIdleWorker.exit, label %17

17:                                               ; preds = %13
  %indvars.iv.next.i = add nuw nsw i64 %indvars.iv.i, 1
  %exitcond.not.i = icmp eq i64 %indvars.iv.next.i, %wide.trip.count.i
  br i1 %exitcond.not.i, label %GetIdleWorker.exit.thread, label %13, !llvm.loop !16

GetIdleWorker.exit.thread:                        ; preds = %17, %9
  tail call void @WaitForWorkers(ptr noundef %0, ptr noundef nonnull %1, i32 noundef 2)
  br label %9, !llvm.loop !17

GetIdleWorker.exit:                               ; preds = %13
  switch i32 %3, label %buildWorkerCommand.exit [
    i32 0, label %.sink.split.i
    i32 1, label %18
  ]

18:                                               ; preds = %GetIdleWorker.exit
  br label %.sink.split.i

.sink.split.i:                                    ; preds = %18, %GetIdleWorker.exit
  %.str.15.sink.i = phi ptr [ @.str.15, %18 ], [ @.str.14, %GetIdleWorker.exit ]
  %19 = getelementptr inbounds nuw i8, ptr %2, i64 24
  %20 = load i32, ptr %19, align 8
  %21 = call i32 (ptr, i64, ptr, ...) @pg_snprintf(ptr noundef nonnull %7, i64 noundef 256, ptr noundef nonnull %.str.15.sink.i, i32 noundef %20) #18
  %.val.pre = load ptr, ptr %8, align 8
  br label %buildWorkerCommand.exit

buildWorkerCommand.exit:                          ; preds = %GetIdleWorker.exit, %.sink.split.i
  %.val = phi ptr [ %12, %GetIdleWorker.exit ], [ %.val.pre, %.sink.split.i ]
  %22 = call i64 @strlen(ptr noundef nonnull readonly dereferenceable(1) %7) #20
  %sext = shl i64 %indvars.iv.i, 32
  %23 = ashr exact i64 %sext, 32
  %24 = getelementptr inbounds %struct.ParallelSlot, ptr %.val, i64 %23, i32 5
  %25 = load i32, ptr %24, align 4
  %26 = shl i64 %22, 32
  %sext.i = add i64 %26, 4294967296
  %27 = ashr exact i64 %sext.i, 32
  %28 = call i64 @write(i32 noundef %25, ptr noundef nonnull readonly %7, i64 noundef %27) #18
  %.not.i = icmp eq i64 %28, %27
  br i1 %.not.i, label %sendMessageToWorker.exit, label %29

29:                                               ; preds = %buildWorkerCommand.exit
  call void (i32, i32, ptr, ...) @pg_log_generic(i32 noundef 4, i32 noundef 0, ptr noundef nonnull @.str.13) #18
  call void @exit_nicely(i32 noundef 1) #19
  unreachable

sendMessageToWorker.exit:                         ; preds = %buildWorkerCommand.exit
  %30 = load ptr, ptr %8, align 8
  %31 = getelementptr inbounds %struct.ParallelSlot, ptr %30, i64 %23
  store i32 2, ptr %31, align 8
  %32 = load ptr, ptr %8, align 8
  %33 = getelementptr inbounds %struct.ParallelSlot, ptr %32, i64 %23, i32 1
  store ptr %4, ptr %33, align 8
  %34 = load ptr, ptr %8, align 8
  %35 = getelementptr inbounds %struct.ParallelSlot, ptr %34, i64 %23, i32 2
  store ptr %5, ptr %35, align 8
  %36 = getelementptr inbounds nuw i8, ptr %1, i64 8
  %37 = load ptr, ptr %36, align 8
  %38 = getelementptr inbounds ptr, ptr %37, i64 %23
  store ptr %2, ptr %38, align 8
  call void @llvm.lifetime.end.p0(i64 256, ptr nonnull %7) #18
  ret void
}